target datalayout = "e-m:e-p270:32:32-p271:32:32-p272:64:64-i64:64-i128:128-f80:128-n8:16:32:64-S128"
target triple = "x86_64-pc-linux-gnu"

@l_Lean_Lsp_instToJsonCompletionItemTag___closed__2 = internal global ptr null, align 8
@l_Lean_Lsp_instToJsonDocumentHighlightKind___closed__2 = internal global ptr null, align 8
@l_Lean_Lsp_instToJsonDocumentHighlightKind___closed__4 = internal global ptr null, align 8
@l_Lean_Lsp_instToJsonSymbolKind___closed__2 = internal global ptr null, align 8
@l_Lean_Lsp_instToJsonSymbolKind___closed__4 = internal global ptr null, align 8
@l_Lean_Lsp_instToJsonSymbolKind___closed__6 = internal global ptr null, align 8
@l_Lean_Lsp_instToJsonSymbolKind___closed__8 = internal global ptr null, align 8
@l_Lean_Lsp_instToJsonSymbolKind___closed__10 = internal global ptr null, align 8
@l_Lean_Lsp_instToJsonSymbolKind___closed__12 = internal global ptr null, align 8
@l_Lean_Lsp_instToJsonSymbolKind___closed__14 = internal global ptr null, align 8
@l_Lean_Lsp_instToJsonSymbolKind___closed__16 = internal global ptr null, align 8
@l_Lean_Lsp_instToJsonSymbolKind___closed__18 = internal global ptr null, align 8
@l_Lean_Lsp_instToJsonSymbolKind___closed__20 = internal global ptr null, align 8
@l_Lean_Lsp_instToJsonSymbolKind___closed__22 = internal global ptr null, align 8
@l_Lean_Lsp_instToJsonSymbolKind___closed__24 = internal global ptr null, align 8
@l_Lean_Lsp_instToJsonSymbolKind___closed__26 = internal global ptr null, align 8
@l_Lean_Lsp_instToJsonSymbolKind___closed__28 = internal global ptr null, align 8
@l_Lean_Lsp_instToJsonSymbolKind___closed__30 = internal global ptr null, align 8
@l_Lean_Lsp_instToJsonSymbolKind___closed__32 = internal global ptr null, align 8
@l_Lean_Lsp_instToJsonSymbolKind___closed__34 = internal global ptr null, align 8
@l_Lean_Lsp_instToJsonSymbolKind___closed__36 = internal global ptr null, align 8
@l_Lean_Lsp_instToJsonSymbolKind___closed__38 = internal global ptr null, align 8
@l_Lean_Lsp_instToJsonSymbolKind___closed__40 = internal global ptr null, align 8
@l_Lean_Lsp_instToJsonSymbolKind___closed__42 = internal global ptr null, align 8
@l_Lean_Lsp_instToJsonSymbolKind___closed__44 = internal global ptr null, align 8
@l_Lean_Lsp_instToJsonSymbolKind___closed__46 = internal global ptr null, align 8

; Function Attrs: nounwind uwtable
define ptr @l_Lean_Lsp_instToJsonSymbolKind(i8 noundef zeroext %0) #2 {
  %2 = alloca ptr, align 8
  %3 = alloca i8, align 1
  %4 = alloca ptr, align 8
  %5 = alloca ptr, align 8
  %6 = alloca ptr, align 8
  %7 = alloca ptr, align 8
  %8 = alloca ptr, align 8
  %9 = alloca ptr, align 8
  %10 = alloca ptr, align 8
  %11 = alloca ptr, align 8
  %12 = alloca ptr, align 8
  %13 = alloca ptr, align 8
  %14 = alloca ptr, align 8
  %15 = alloca ptr, align 8
  %16 = alloca ptr, align 8
  %17 = alloca ptr, align 8
  %18 = alloca ptr, align 8
  %19 = alloca ptr, align 8
  %20 = alloca ptr, align 8
  %21 = alloca ptr, align 8
  %22 = alloca ptr, align 8
  %23 = alloca ptr, align 8
  %24 = alloca ptr, align 8
  %25 = alloca ptr, align 8
  %26 = alloca ptr, align 8
  %27 = alloca ptr, align 8
  %28 = alloca ptr, align 8
  %29 = alloca ptr, align 8
  store i8 %0, ptr %3, align 1, !tbaa !12
  br label %30

30:                                               ; preds = %1
  %31 = load i8, ptr %3, align 1, !tbaa !12
  %32 = zext i8 %31 to i32
  switch i32 %32, label %108 [
    i32 0, label %33
    i32 1, label %36
    i32 2, label %39
    i32 3, label %42
    i32 4, label %45
    i32 5, label %48
    i32 6, label %51
    i32 7, label %54
    i32 8, label %57
    i32 9, label %60
    i32 10, label %63
    i32 11, label %66
    i32 12, label %69
    i32 13, label %72
    i32 14, label %75
    i32 15, label %78
    i32 16, label %81
    i32 17, label %84
    i32 18, label %87
    i32 19, label %90
    i32 20, label %93
    i32 21, label %96
    i32 22, label %99
    i32 23, label %102
    i32 24, label %105
  ]

33:                                               ; preds = %30
  call void @llvm.lifetime.start.p0(i64 8, ptr %4) #7
  %34 = load ptr, ptr @l_Lean_Lsp_instToJsonCompletionItemTag___closed__2, align 8, !tbaa !4
  store ptr %34, ptr %4, align 8, !tbaa !4
  %35 = load ptr, ptr %4, align 8, !tbaa !4
  store ptr %35, ptr %2, align 8
  call void @llvm.lifetime.end.p0(i64 8, ptr %4) #7
  br label %111

36:                                               ; preds = %30
  call void @llvm.lifetime.start.p0(i64 8, ptr %5) #7
  %37 = load ptr, ptr @l_Lean_Lsp_instToJsonDocumentHighlightKind___closed__2, align 8, !tbaa !4
  store ptr %37, ptr %5, align 8, !tbaa !4
  %38 = load ptr, ptr %5, align 8, !tbaa !4
  store ptr %38, ptr %2, align 8
  call void @llvm.lifetime.end.p0(i64 8, ptr %5) #7
  br label %111

39:                                               ; preds = %30
  call void @llvm.lifetime.start.p0(i64 8, ptr %6) #7
  %40 = load ptr, ptr @l_Lean_Lsp_instToJsonDocumentHighlightKind___closed__4, align 8, !tbaa !4
  store ptr %40, ptr %6, align 8, !tbaa !4
  %41 = load ptr, ptr %6, align 8, !tbaa !4
  store ptr %41, ptr %2, align 8
  call void @llvm.lifetime.end.p0(i64 8, ptr %6) #7
  br label %111

42:                                               ; preds = %30
  call void @llvm.lifetime.start.p0(i64 8, ptr %7) #7
  %43 = load ptr, ptr @l_Lean_Lsp_instToJsonSymbolKind___closed__2, align 8, !tbaa !4
  store ptr %43, ptr %7, align 8, !tbaa !4
  %44 = load ptr, ptr %7, align 8, !tbaa !4
  store ptr %44, ptr %2, align 8
  call void @llvm.lifetime.end.p0(i64 8, ptr %7) #7
  br label %111

45:                                               ; preds = %30
  call void @llvm.lifetime.start.p0(i64 8, ptr %8) #7
  %46 = load ptr, ptr @l_Lean_Lsp_instToJsonSymbolKind___closed__4, align 8, !tbaa !4
  store ptr %46, ptr %8, align 8, !tbaa !4
  %47 = load ptr, ptr %8, align 8, !tbaa !4
  store ptr %47, ptr %2, align 8
  call void @llvm.lifetime.end.p0(i64 8, ptr %8) #7
  br label %111

48:                                               ; preds = %30
  call void @llvm.lifetime.start.p0(i64 8, ptr %9) #7
  %49 = load ptr, ptr @l_Lean_Lsp_instToJsonSymbolKind___closed__6, align 8, !tbaa !4
  store ptr %49, ptr %9, align 8, !tbaa !4
  %50 = load ptr, ptr %9, align 8, !tbaa !4
  store ptr %50, ptr %2, align 8
  call void @llvm.lifetime.end.p0(i64 8, ptr %9) #7
  br label %111

51:                                               ; preds = %30
  call void @llvm.lifetime.start.p0(i64 8, ptr %10) #7
  %52 = load ptr, ptr @l_Lean_Lsp_instToJsonSymbolKind___closed__8, align 8, !tbaa !4
  store ptr %52, ptr %10, align 8, !tbaa !4
  %53 = load ptr, ptr %10, align 8, !tbaa !4
  store ptr %53, ptr %2, align 8
  call void @llvm.lifetime.end.p0(i64 8, ptr %10) #7
  br label %111

54:                                               ; preds = %30
  call void @llvm.lifetime.start.p0(i64 8, ptr %11) #7
  %55 = load ptr, ptr @l_Lean_Lsp_instToJsonSymbolKind___closed__10, align 8, !tbaa !4
  store ptr %55, ptr %11, align 8, !tbaa !4
  %56 = load ptr, ptr %11, align 8, !tbaa !4
  store ptr %56, ptr %2, align 8
  call void @llvm.lifetime.end.p0(i64 8, ptr %11) #7
  br label %111

57:                                               ; preds = %30
  call void @llvm.lifetime.start.p0(i64 8, ptr %12) #7
  %58 = load ptr, ptr @l_Lean_Lsp_instToJsonSymbolKind___closed__12, align 8, !tbaa !4
  store ptr %58, ptr %12, align 8, !tbaa !4
  %59 = load ptr, ptr %12, align 8, !tbaa !4
  store ptr %59, ptr %2, align 8
  call void @llvm.lifetime.end.p0(i64 8, ptr %12) #7
  br label %111

60:                                               ; preds = %30
  call void @llvm.lifetime.start.p0(i64 8, ptr %13) #7
  %61 = load ptr, ptr @l_Lean_Lsp_instToJsonSymbolKind___closed__14, align 8, !tbaa !4
  store ptr %61, ptr %13, align 8, !tbaa !4
  %62 = load ptr, ptr %13, align 8, !tbaa !4
  store ptr %62, ptr %2, align 8
  call void @llvm.lifetime.end.p0(i64 8, ptr %13) #7
  br label %111

63:                                               ; preds = %30
  call void @llvm.lifetime.start.p0(i64 8, ptr %14) #7
  %64 = load ptr, ptr @l_Lean_Lsp_instToJsonSymbolKind___closed__16, align 8, !tbaa !4
  store ptr %64, ptr %14, align 8, !tbaa !4
  %65 = load ptr, ptr %14, align 8, !tbaa !4
  store ptr %65, ptr %2, align 8
  call void @llvm.lifetime.end.p0(i64 8, ptr %14) #7
  br label %111

66:                                               ; preds = %30
  call void @llvm.lifetime.start.p0(i64 8, ptr %15) #7
  %67 = load ptr, ptr @l_Lean_Lsp_instToJsonSymbolKind___closed__18, align 8, !tbaa !4
  store ptr %67, ptr %15, align 8, !tbaa !4
  %68 = load ptr, ptr %15, align 8, !tbaa !4
  store ptr %68, ptr %2, align 8
  call void @llvm.lifetime.end.p0(i64 8, ptr %15) #7
  br label %111

69:                                               ; preds = %30
  call void @llvm.lifetime.start.p0(i64 8, ptr %16) #7
  %70 = load ptr, ptr @l_Lean_Lsp_instToJsonSymbolKind___closed__20, align 8, !tbaa !4
  store ptr %70, ptr %16, align 8, !tbaa !4
  %71 = load ptr, ptr %16, align 8, !tbaa !4
  store ptr %71, ptr %2, align 8
  call void @llvm.lifetime.end.p0(i64 8, ptr %16) #7
  br label %111

72:                                               ; preds = %30
  call void @llvm.lifetime.start.p0(i64 8, ptr %17) #7
  %73 = load ptr, ptr @l_Lean_Lsp_instToJsonSymbolKind___closed__22, align 8, !tbaa !4
  store ptr %73, ptr %17, align 8, !tbaa !4
  %74 = load ptr, ptr %17, align 8, !tbaa !4
  store ptr %74, ptr %2, align 8
  call void @llvm.lifetime.end.p0(i64 8, ptr %17) #7
  br label %111

75:                                               ; preds = %30
  call void @llvm.lifetime.start.p0(i64 8, ptr %18) #7
  %76 = load ptr, ptr @l_Lean_Lsp_instToJsonSymbolKind___closed__24, align 8, !tbaa !4
  store ptr %76, ptr %18, align 8, !tbaa !4
  %77 = load ptr, ptr %18, align 8, !tbaa !4
  store ptr %77, ptr %2, align 8
  call void @llvm.lifetime.end.p0(i64 8, ptr %18) #7
  br label %111

78:                                               ; preds = %30
  call void @llvm.lifetime.start.p0(i64 8, ptr %19) #7
  %79 = load ptr, ptr @l_Lean_Lsp_instToJsonSymbolKind___closed__26, align 8, !tbaa !4
  store ptr %79, ptr %19, align 8, !tbaa !4
  %80 = load ptr, ptr %19, align 8, !tbaa !4
  store ptr %80, ptr %2, align 8
  call void @llvm.lifetime.end.p0(i64 8, ptr %19) #7
  br label %111

81:                                               ; preds = %30
  call void @llvm.lifetime.start.p0(i64 8, ptr %20) #7
  %82 = load ptr, ptr @l_Lean_Lsp_instToJsonSymbolKind___closed__28, align 8, !tbaa !4
  store ptr %82, ptr %20, align 8, !tbaa !4
  %83 = load ptr, ptr %20, align 8, !tbaa !4
  store ptr %83, ptr %2, align 8
  call void @llvm.lifetime.end.p0(i64 8, ptr %20) #7
  br label %111

84:                                               ; preds = %30
  call void @llvm.lifetime.start.p0(i64 8, ptr %21) #7
  %85 = load ptr, ptr @l_Lean_Lsp_instToJsonSymbolKind___closed__30, align 8, !tbaa !4
  store ptr %85, ptr %21, align 8, !tbaa !4
  %86 = load ptr, ptr %21, align 8, !tbaa !4
  store ptr %86, ptr %2, align 8
  call void @llvm.lifetime.end.p0(i64 8, ptr %21) #7
  br label %111

87:                                               ; preds = %30
  call void @llvm.lifetime.start.p0(i64 8, ptr %22) #7
  %88 = load ptr, ptr @l_Lean_Lsp_instToJsonSymbolKind___closed__32, align 8, !tbaa !4
  store ptr %88, ptr %22, align 8, !tbaa !4
  %89 = load ptr, ptr %22, align 8, !tbaa !4
  store ptr %89, ptr %2, align 8
  call void @llvm.lifetime.end.p0(i64 8, ptr %22) #7
  br label %111

90:                                               ; preds = %30
  call void @llvm.lifetime.start.p0(i64 8, ptr %23) #7
  %91 = load ptr, ptr @l_Lean_Lsp_instToJsonSymbolKind___closed__34, align 8, !tbaa !4
  store ptr %91, ptr %23, align 8, !tbaa !4
  %92 = load ptr, ptr %23, align 8, !tbaa !4
  store ptr %92, ptr %2, align 8
  call void @llvm.lifetime.end.p0(i64 8, ptr %23) #7
  br label %111

93:                                               ; preds = %30
  call void @llvm.lifetime.start.p0(i64 8, ptr %24) #7
  %94 = load ptr, ptr @l_Lean_Lsp_instToJsonSymbolKind___closed__36, align 8, !tbaa !4
  store ptr %94, ptr %24, align 8, !tbaa !4
  %95 = load ptr, ptr %24, align 8, !tbaa !4
  store ptr %95, ptr %2, align 8
  call void @llvm.lifetime.end.p0(i64 8, ptr %24) #7
  br label %111

96:                                               ; preds = %30
  call void @llvm.lifetime.start.p0(i64 8, ptr %25) #7
  %97 = load ptr, ptr @l_Lean_Lsp_instToJsonSymbolKind___closed__38, align 8, !tbaa !4
  store ptr %97, ptr %25, align 8, !tbaa !4
  %98 = load ptr, ptr %25, align 8, !tbaa !4
  store ptr %98, ptr %2, align 8
  call void @llvm.lifetime.end.p0(i64 8, ptr %25) #7
  br label %111

99:                                               ; preds = %30
  call void @llvm.lifetime.start.p0(i64 8, ptr %26) #7
  %100 = load ptr, ptr @l_Lean_Lsp_instToJsonSymbolKind___closed__40, align 8, !tbaa !4
  store ptr %100, ptr %26, align 8, !tbaa !4
  %101 = load ptr, ptr %26, align 8, !tbaa !4
  store ptr %101, ptr %2, align 8
  call void @llvm.lifetime.end.p0(i64 8, ptr %26) #7
  br label %111

102:                                              ; preds = %30
  call void @llvm.lifetime.start.p0(i64 8, ptr %27) #7
  %103 = load ptr, ptr @l_Lean_Lsp_instToJsonSymbolKind___closed__42, align 8, !tbaa !4
  store ptr %103, ptr %27, align 8, !tbaa !4
  %104 = load ptr, ptr %27, align 8, !tbaa !4
  store ptr %104, ptr %2, align 8
  call void @llvm.lifetime.end.p0(i64 8, ptr %27) #7
  br label %111

105:                                              ; preds = %30
  call void @llvm.lifetime.start.p0(i64 8, ptr %28) #7
  %106 = load ptr, ptr @l_Lean_Lsp_instToJsonSymbolKind___closed__44, align 8, !tbaa !4
  store ptr %106, ptr %28, align 8, !tbaa !4
  %107 = load ptr, ptr %28, align 8, !tbaa !4
  store ptr %107, ptr %2, align 8
  call void @llvm.lifetime.end.p0(i64 8, ptr %28) #7
  br label %111

108:                                              ; preds = %30
  call void @llvm.lifetime.start.p0(i64 8, ptr %29) #7
  %109 = load ptr, ptr @l_Lean_Lsp_instToJsonSymbolKind___closed__46, align 8, !tbaa !4
  store ptr %109, ptr %29, align 8, !tbaa !4
  %110 = load ptr, ptr %29, align 8, !tbaa !4
  store ptr %110, ptr %2, align 8
  call void @llvm.lifetime.end.p0(i64 8, ptr %29) #7
  br label %111

111:                                              ; preds = %108, %105, %102, %99, %96, %93, %90, %87, %84, %81, %78, %75, %72, %69, %66, %63, %60, %57, %54, %51, %48, %45, %42, %39, %36, %33
  %112 = load ptr, ptr %2, align 8
  ret ptr %112
}